target datalayout = "e-m:e-p270:32:32-p271:32:32-p272:64:64-i64:64-i128:128-f80:128-n8:16:32:64-S128"
target triple = "x86_64-pc-linux-gnu"

%struct.Aig_ManCut_t_ = type { ptr, ptr, i32, i32, i32, i32, i32, i32, ptr, [4 x ptr] }
%struct.Aig_Obj_t_ = type { %union.anon, ptr, ptr, i64, i32, i32, %union.anon.0 }
%union.anon = type { ptr }
%union.anon.0 = type { ptr }
%struct.Aig_Cut_t_ = type { ptr, i32, i32, i32, i16, i8, i8, [0 x i32] }

; Function Attrs: inlinehint nounwind uwtable
define internal ptr @Aig_CutNext(ptr noundef %0) #5 {
  %2 = alloca ptr, align 8
  store ptr %0, ptr %2, align 8, !tbaa !37
  %3 = load ptr, ptr %2, align 8, !tbaa !37
  %4 = load ptr, ptr %2, align 8, !tbaa !37
  %5 = getelementptr inbounds nuw %struct.Aig_Cut_t_, ptr %4, i32 0, i32 4
  %6 = load i16, ptr %5, align 4, !tbaa !47
  %7 = sext i16 %6 to i32
  %8 = sext i32 %7 to i64
  %9 = getelementptr inbounds i8, ptr %3, i64 %8
  ret ptr %9
}

; Function Attrs: inlinehint nounwind uwtable
define internal i32 @Aig_CutCheckDominance(ptr noundef %0, ptr noundef %1) #5 {
  %3 = alloca i32, align 4
  %4 = alloca ptr, align 8
  %5 = alloca ptr, align 8
  %6 = alloca i32, align 4
  %7 = alloca i32, align 4
  %8 = alloca i32, align 4
  store ptr %0, ptr %4, align 8, !tbaa !37
  store ptr %1, ptr %5, align 8, !tbaa !37
  call void @llvm.lifetime.start.p0(i64 4, ptr %6) #10
  call void @llvm.lifetime.start.p0(i64 4, ptr %7) #10
  store i32 0, ptr %6, align 4, !tbaa !8
  br label %9

9:                                                ; preds = %52, %2
  %10 = load i32, ptr %6, align 4, !tbaa !8
  %11 = load ptr, ptr %4, align 8, !tbaa !37
  %12 = getelementptr inbounds nuw %struct.Aig_Cut_t_, ptr %11, i32 0, i32 6
  %13 = load i8, ptr %12, align 1, !tbaa !39
  %14 = sext i8 %13 to i32
  %15 = icmp slt i32 %10, %14
  br i1 %15, label %16, label %55

16:                                               ; preds = %9
  store i32 0, ptr %7, align 4, !tbaa !8
  br label %17

17:                                               ; preds = %40, %16
  %18 = load i32, ptr %7, align 4, !tbaa !8
  %19 = load ptr, ptr %5, align 8, !tbaa !37
  %20 = getelementptr inbounds nuw %struct.Aig_Cut_t_, ptr %19, i32 0, i32 6
  %21 = load i8, ptr %20, align 1, !tbaa !39
  %22 = sext i8 %21 to i32
  %23 = icmp slt i32 %18, %22
  br i1 %23, label %24, label %43

24:                                               ; preds = %17
  %25 = load ptr, ptr %4, align 8, !tbaa !37
  %26 = getelementptr inbounds nuw %struct.Aig_Cut_t_, ptr %25, i32 0, i32 7
  %27 = load i32, ptr %6, align 4, !tbaa !8
  %28 = sext i32 %27 to i64
  %29 = getelementptr inbounds [0 x i32], ptr %26, i64 0, i64 %28
  %30 = load i32, ptr %29, align 4, !tbaa !8
  %31 = load ptr, ptr %5, align 8, !tbaa !37
  %32 = getelementptr inbounds nuw %struct.Aig_Cut_t_, ptr %31, i32 0, i32 7
  %33 = load i32, ptr %7, align 4, !tbaa !8
  %34 = sext i32 %33 to i64
  %35 = getelementptr inbounds [0 x i32], ptr %32, i64 0, i64 %34
  %36 = load i32, ptr %35, align 4, !tbaa !8
  %37 = icmp eq i32 %30, %36
  br i1 %37, label %38, label %39

38:                                               ; preds = %24
  br label %43

39:                                               ; preds = %24
  br label %40

40:                                               ; preds = %39
  %41 = load i32, ptr %7, align 4, !tbaa !8
  %42 = add nsw i32 %41, 1
  store i32 %42, ptr %7, align 4, !tbaa !8
  br label %17, !llvm.loop !63

43:                                               ; preds = %38, %17
  %44 = load i32, ptr %7, align 4, !tbaa !8
  %45 = load ptr, ptr %5, align 8, !tbaa !37
  %46 = getelementptr inbounds nuw %struct.Aig_Cut_t_, ptr %45, i32 0, i32 6
  %47 = load i8, ptr %46, align 1, !tbaa !39
  %48 = sext i8 %47 to i32
  %49 = icmp eq i32 %44, %48
  br i1 %49, label %50, label %51

50:                                               ; preds = %43
  store i32 0, ptr %3, align 4
  store i32 1, ptr %8, align 4
  br label %56

51:                                               ; preds = %43
  br label %52

52:                                               ; preds = %51
  %53 = load i32, ptr %6, align 4, !tbaa !8
  %54 = add nsw i32 %53, 1
  store i32 %54, ptr %6, align 4, !tbaa !8
  br label %9, !llvm.loop !64

55:                                               ; preds = %9
  store i32 1, ptr %3, align 4
  store i32 1, ptr %8, align 4
  br label %56

56:                                               ; preds = %55, %50
  call void @llvm.lifetime.end.p0(i64 4, ptr %7) #10
  call void @llvm.lifetime.end.p0(i64 4, ptr %6) #10
  %57 = load i32, ptr %3, align 4
  ret i32 %57
}

; Function Attrs: inlinehint nounwind uwtable
define internal ptr @Aig_ObjCuts(ptr noundef %0, ptr noundef %1) #5 {
  %3 = alloca ptr, align 8
  %4 = alloca ptr, align 8
  store ptr %0, ptr %3, align 8, !tbaa !10
  store ptr %1, ptr %4, align 8, !tbaa !44
  %5 = load ptr, ptr %3, align 8, !tbaa !10
  %6 = getelementptr inbounds nuw %struct.Aig_ManCut_t_, ptr %5, i32 0, i32 1
  %7 = load ptr, ptr %6, align 8, !tbaa !20
  %8 = load ptr, ptr %4, align 8, !tbaa !44
  %9 = getelementptr inbounds nuw %struct.Aig_Obj_t_, ptr %8, i32 0, i32 5
  %10 = load i32, ptr %9, align 4, !tbaa !45
  %11 = sext i32 %10 to i64
  %12 = getelementptr inbounds ptr, ptr %7, i64 %11
  %13 = load ptr, ptr %12, align 8, !tbaa !37
  ret ptr %13
}

; Function Attrs: nounwind uwtable
define i32 @Aig_CutFilter(ptr noundef %0, ptr noundef %1, ptr noundef %2) #0 {
  %4 = alloca i32, align 4
  %5 = alloca ptr, align 8
  %6 = alloca ptr, align 8
  %7 = alloca ptr, align 8
  %8 = alloca ptr, align 8
  %9 = alloca i32, align 4
  %10 = alloca i32, align 4
  store ptr %0, ptr %5, align 8, !tbaa !10
  store ptr %1, ptr %6, align 8, !tbaa !44
  store ptr %2, ptr %7, align 8, !tbaa !37
  call void @llvm.lifetime.start.p0(i64 8, ptr %8) #10
  call void @llvm.lifetime.start.p0(i64 4, ptr %9) #10
  store i32 0, ptr %9, align 4, !tbaa !8
  %11 = load ptr, ptr %5, align 8, !tbaa !10
  %12 = load ptr, ptr %6, align 8, !tbaa !44
  %13 = call ptr @Aig_ObjCuts(ptr noundef %11, ptr noundef %12)
  store ptr %13, ptr %8, align 8, !tbaa !37
  br label %14

14:                                               ; preds = %87, %3
  %15 = load i32, ptr %9, align 4, !tbaa !8
  %16 = load ptr, ptr %5, align 8, !tbaa !10
  %17 = getelementptr inbounds nuw %struct.Aig_ManCut_t_, ptr %16, i32 0, i32 2
  %18 = load i32, ptr %17, align 8, !tbaa !12
  %19 = icmp slt i32 %15, %18
  br i1 %19, label %20, label %92

20:                                               ; preds = %14
  %21 = load ptr, ptr %8, align 8, !tbaa !37
  %22 = getelementptr inbounds nuw %struct.Aig_Cut_t_, ptr %21, i32 0, i32 6
  %23 = load i8, ptr %22, align 1, !tbaa !39
  %24 = sext i8 %23 to i32
  %25 = icmp slt i32 %24, 2
  br i1 %25, label %26, label %27

26:                                               ; preds = %20
  br label %87

27:                                               ; preds = %20
  %28 = load ptr, ptr %8, align 8, !tbaa !37
  %29 = load ptr, ptr %7, align 8, !tbaa !37
  %30 = icmp eq ptr %28, %29
  br i1 %30, label %31, label %32

31:                                               ; preds = %27
  br label %87

32:                                               ; preds = %27
  %33 = load ptr, ptr %8, align 8, !tbaa !37
  %34 = getelementptr inbounds nuw %struct.Aig_Cut_t_, ptr %33, i32 0, i32 6
  %35 = load i8, ptr %34, align 1, !tbaa !39
  %36 = sext i8 %35 to i32
  %37 = load ptr, ptr %7, align 8, !tbaa !37
  %38 = getelementptr inbounds nuw %struct.Aig_Cut_t_, ptr %37, i32 0, i32 6
  %39 = load i8, ptr %38, align 1, !tbaa !39
  %40 = sext i8 %39 to i32
  %41 = icmp sgt i32 %36, %40
  br i1 %41, label %42, label %64

42:                                               ; preds = %32
  %43 = load ptr, ptr %8, align 8, !tbaa !37
  %44 = getelementptr inbounds nuw %struct.Aig_Cut_t_, ptr %43, i32 0, i32 2
  %45 = load i32, ptr %44, align 4, !tbaa !61
  %46 = load ptr, ptr %7, align 8, !tbaa !37
  %47 = getelementptr inbounds nuw %struct.Aig_Cut_t_, ptr %46, i32 0, i32 2
  %48 = load i32, ptr %47, align 4, !tbaa !61
  %49 = and i32 %45, %48
  %50 = load ptr, ptr %7, align 8, !tbaa !37
  %51 = getelementptr inbounds nuw %struct.Aig_Cut_t_, ptr %50, i32 0, i32 2
  %52 = load i32, ptr %51, align 4, !tbaa !61
  %53 = icmp ne i32 %49, %52
  br i1 %53, label %54, label %55

54:                                               ; preds = %42
  br label %87

55:                                               ; preds = %42
  %56 = load ptr, ptr %7, align 8, !tbaa !37
  %57 = load ptr, ptr %8, align 8, !tbaa !37
  %58 = call i32 @Aig_CutCheckDominance(ptr noundef %56, ptr noundef %57)
  %59 = icmp ne i32 %58, 0
  br i1 %59, label %60, label %63

60:                                               ; preds = %55
  %61 = load ptr, ptr %8, align 8, !tbaa !37
  %62 = getelementptr inbounds nuw %struct.Aig_Cut_t_, ptr %61, i32 0, i32 6
  store i8 0, ptr %62, align 1, !tbaa !39
  br label %63

63:                                               ; preds = %60, %55
  br label %86

64:                                               ; preds = %32
  %65 = load ptr, ptr %8, align 8, !tbaa !37
  %66 = getelementptr inbounds nuw %struct.Aig_Cut_t_, ptr %65, i32 0, i32 2
  %67 = load i32, ptr %66, align 4, !tbaa !61
  %68 = load ptr, ptr %7, align 8, !tbaa !37
  %69 = getelementptr inbounds nuw %struct.Aig_Cut_t_, ptr %68, i32 0, i32 2
  %70 = load i32, ptr %69, align 4, !tbaa !61
  %71 = and i32 %67, %70
  %72 = load ptr, ptr %8, align 8, !tbaa !37
  %73 = getelementptr inbounds nuw %struct.Aig_Cut_t_, ptr %72, i32 0, i32 2
  %74 = load i32, ptr %73, align 4, !tbaa !61
  %75 = icmp ne i32 %71, %74
  br i1 %75, label %76, label %77

76:                                               ; preds = %64
  br label %87

77:                                               ; preds = %64
  %78 = load ptr, ptr %8, align 8, !tbaa !37
  %79 = load ptr, ptr %7, align 8, !tbaa !37
  %80 = call i32 @Aig_CutCheckDominance(ptr noundef %78, ptr noundef %79)
  %81 = icmp ne i32 %80, 0
  br i1 %81, label %82, label %85

82:                                               ; preds = %77
  %83 = load ptr, ptr %7, align 8, !tbaa !37
  %84 = getelementptr inbounds nuw %struct.Aig_Cut_t_, ptr %83, i32 0, i32 6
  store i8 0, ptr %84, align 1, !tbaa !39
  store i32 1, ptr %4, align 4
  store i32 1, ptr %10, align 4
  br label %93

85:                                               ; preds = %77
  br label %86

86:                                               ; preds = %85, %63
  br label %87

87:                                               ; preds = %86, %76, %54, %31, %26
  %88 = load i32, ptr %9, align 4, !tbaa !8
  %89 = add nsw i32 %88, 1
  store i32 %89, ptr %9, align 4, !tbaa !8
  %90 = load ptr, ptr %8, align 8, !tbaa !37
  %91 = call ptr @Aig_CutNext(ptr noundef %90)
  store ptr %91, ptr %8, align 8, !tbaa !37
  br label %14, !llvm.loop !62

92:                                               ; preds = %14
  store i32 0, ptr %4, align 4
  store i32 1, ptr %10, align 4
  br label %93

93:                                               ; preds = %92, %82
  call void @llvm.lifetime.end.p0(i64 4, ptr %9) #10
  call void @llvm.lifetime.end.p0(i64 8, ptr %8) #10
  %94 = load i32, ptr %4, align 4
  ret i32 %94
}