; Function Attrs: nofree norecurse nosync nounwind memory(readwrite, inaccessiblemem: none) uwtable
define range(i32 0, 2) i32 @Aig_CutFilter(ptr noundef readonly captures(none) %0, ptr noundef readonly captures(none) %1, ptr noundef %2) local_unnamed_addr #10 {
  %4 = getelementptr inbounds nuw i8, ptr %0, i64 16
  %5 = load i32, ptr %4, align 8, !tbaa !3
  %6 = icmp sgt i32 %5, 0
  br i1 %6, label %.lr.ph, label %.loopexit

.lr.ph:                                           ; preds = %3
  %7 = getelementptr i8, ptr %0, i64 8
  %.val = load ptr, ptr %7, align 8, !tbaa !30
  %8 = getelementptr i8, ptr %1, i64 36
  %.val30 = load i32, ptr %8, align 4, !tbaa !42
  %9 = sext i32 %.val30 to i64
  %10 = getelementptr inbounds ptr, ptr %.val, i64 %9
  %11 = load ptr, ptr %10, align 8, !tbaa !43
  %12 = getelementptr inbounds nuw i8, ptr %2, i64 23
  %13 = getelementptr inbounds nuw i8, ptr %2, i64 12
  %14 = getelementptr inbounds nuw i8, ptr %2, i64 24
  br label %15

15:                                               ; preds = %.lr.ph, %Aig_CutCheckDominance.exit.thread
  %.057 = phi i32 [ 0, %.lr.ph ], [ %49, %Aig_CutCheckDominance.exit.thread ]
  %.02356 = phi ptr [ %11, %.lr.ph ], [ %53, %Aig_CutCheckDominance.exit.thread ]
  %16 = getelementptr inbounds nuw i8, ptr %.02356, i64 23
  %17 = load i8, ptr %16, align 1, !tbaa !35
  %18 = icmp slt i8 %17, 2
  %19 = icmp eq ptr %.02356, %2
  %or.cond = or i1 %18, %19
  br i1 %or.cond, label %Aig_CutCheckDominance.exit.thread, label %20

20:                                               ; preds = %15
  %21 = load i8, ptr %12, align 1, !tbaa !35
  %22 = icmp sgt i8 %17, %21
  %23 = getelementptr inbounds nuw i8, ptr %.02356, i64 12
  %24 = load i32, ptr %23, align 4, !tbaa !56
  %25 = load i32, ptr %13, align 4, !tbaa !56
  %26 = and i32 %25, %24
  br i1 %22, label %27, label %38

27:                                               ; preds = %20
  %.not28 = icmp eq i32 %26, %25
  br i1 %.not28, label %28, label %Aig_CutCheckDominance.exit.thread

28:                                               ; preds = %27
  %wide.trip.count30.i = sext i8 %21 to i64
  %29 = icmp sgt i8 %21, 0
  br i1 %29, label %.preheader.us.preheader.i, label %Aig_CutCheckDominance.exit

.preheader.us.preheader.i:                        ; preds = %28
  %30 = getelementptr inbounds nuw i8, ptr %.02356, i64 24
  %wide.trip.count.i = zext nneg i8 %17 to i64
  br label %.preheader.us.i

.preheader.us.i:                                  ; preds = %._crit_edge.us.i, %.preheader.us.preheader.i
  %indvars.iv27.i = phi i64 [ 0, %.preheader.us.preheader.i ], [ %indvars.iv.next28.i, %._crit_edge.us.i ]
  %31 = getelementptr inbounds nuw [0 x i32], ptr %14, i64 0, i64 %indvars.iv27.i
  %32 = load i32, ptr %31, align 4, !tbaa !39
  br label %33

33:                                               ; preds = %37, %.preheader.us.i
  %indvars.iv.i = phi i64 [ 0, %.preheader.us.i ], [ %indvars.iv.next.i, %37 ]
  %34 = getelementptr inbounds nuw [0 x i32], ptr %30, i64 0, i64 %indvars.iv.i
  %35 = load i32, ptr %34, align 4, !tbaa !39
  %36 = icmp eq i32 %32, %35
  br i1 %36, label %._crit_edge.us.i, label %37

37:                                               ; preds = %33
  %indvars.iv.next.i = add nuw nsw i64 %indvars.iv.i, 1
  %exitcond.not.i = icmp eq i64 %indvars.iv.next.i, %wide.trip.count.i
  br i1 %exitcond.not.i, label %Aig_CutCheckDominance.exit.thread, label %33, !llvm.loop !57

._crit_edge.us.i:                                 ; preds = %33
  %indvars.iv.next28.i = add nuw nsw i64 %indvars.iv27.i, 1
  %exitcond31.not.i = icmp eq i64 %indvars.iv.next28.i, %wide.trip.count30.i
  br i1 %exitcond31.not.i, label %Aig_CutCheckDominance.exit, label %.preheader.us.i, !llvm.loop !58

Aig_CutCheckDominance.exit:                       ; preds = %._crit_edge.us.i, %28
  store i8 0, ptr %16, align 1, !tbaa !35
  br label %Aig_CutCheckDominance.exit.thread

38:                                               ; preds = %20
  %.not = icmp eq i32 %26, %24
  br i1 %.not, label %.preheader.us.preheader.i36, label %Aig_CutCheckDominance.exit.thread

.preheader.us.preheader.i36:                      ; preds = %38
  %wide.trip.count30.i31 = zext nneg i8 %17 to i64
  %39 = getelementptr inbounds nuw i8, ptr %.02356, i64 24
  %wide.trip.count.i37 = zext nneg i8 %21 to i64
  br label %.preheader.us.i38

.preheader.us.i38:                                ; preds = %48, %.preheader.us.preheader.i36
  %indvars.iv27.i39 = phi i64 [ 0, %.preheader.us.preheader.i36 ], [ %indvars.iv.next28.i44, %48 ]
  %40 = getelementptr inbounds nuw [0 x i32], ptr %39, i64 0, i64 %indvars.iv27.i39
  %41 = load i32, ptr %40, align 4, !tbaa !39
  br label %42

42:                                               ; preds = %46, %.preheader.us.i38
  %indvars.iv.i40 = phi i64 [ 0, %.preheader.us.i38 ], [ %indvars.iv.next.i41, %46 ]
  %43 = getelementptr inbounds nuw [0 x i32], ptr %14, i64 0, i64 %indvars.iv.i40
  %44 = load i32, ptr %43, align 4, !tbaa !39
  %45 = icmp eq i32 %41, %44
  br i1 %45, label %._crit_edge.us.i43, label %46

46:                                               ; preds = %42
  %indvars.iv.next.i41 = add nuw nsw i64 %indvars.iv.i40, 1
  %exitcond.not.i42 = icmp eq i64 %indvars.iv.next.i41, %wide.trip.count.i37
  br i1 %exitcond.not.i42, label %Aig_CutCheckDominance.exit.thread, label %42, !llvm.loop !57

._crit_edge.us.i43:                               ; preds = %42
  %47 = icmp eq i64 %indvars.iv.i40, %wide.trip.count.i37
  br i1 %47, label %Aig_CutCheckDominance.exit.thread, label %48

48:                                               ; preds = %._crit_edge.us.i43
  %indvars.iv.next28.i44 = add nuw nsw i64 %indvars.iv27.i39, 1
  %exitcond31.not.i45 = icmp eq i64 %indvars.iv.next28.i44, %wide.trip.count30.i31
  br i1 %exitcond31.not.i45, label %Aig_CutCheckDominance.exit46, label %.preheader.us.i38, !llvm.loop !58

Aig_CutCheckDominance.exit46:                     ; preds = %48
  store i8 0, ptr %12, align 1, !tbaa !35
  br label %.loopexit

Aig_CutCheckDominance.exit.thread:                ; preds = %._crit_edge.us.i43, %46, %37, %Aig_CutCheckDominance.exit, %38, %27, %15
  %49 = add nuw nsw i32 %.057, 1
  %50 = getelementptr inbounds nuw i8, ptr %.02356, i64 20
  %51 = load i16, ptr %50, align 4, !tbaa !44
  %52 = sext i16 %51 to i64
  %53 = getelementptr inbounds i8, ptr %.02356, i64 %52
  %exitcond.not = icmp eq i32 %49, %5
  br i1 %exitcond.not, label %.loopexit, label %15, !llvm.loop !59

.loopexit:                                        ; preds = %Aig_CutCheckDominance.exit.thread, %3, %Aig_CutCheckDominance.exit46
  %.024 = phi i32 [ 1, %Aig_CutCheckDominance.exit46 ], [ 0, %3 ], [ 0, %Aig_CutCheckDominance.exit.thread ]
  ret i32 %.024
}